; ModuleID = '34/2708.c'
source_filename = "34/2708.c"
target datalayout = "e-m:e-p270:32:32-p271:32:32-p272:64:64-i64:64-f80:128-n8:16:32:64-S128"
target triple = "x86_64-pc-linux-gnu"

@.str = private unnamed_addr constant [3 x i8] c"%d\00", align 1
@.str.1 = private unnamed_addr constant [4 x i8] c"End\00", align 1
@.str.2 = private unnamed_addr constant [11 x i8] c"%d*3+1=%d\0A\00", align 1
@.str.3 = private unnamed_addr constant [9 x i8] c"%d/2=%d\0A\00", align 1
@.str.4 = private unnamed_addr constant [7 x i8] c"2/2=1\0A\00", align 1

; Function Attrs: noinline nounwind uwtable
define dso_local i32 @jiaogu(i32 %0) #0 {
  %2 = alloca i32, align 4
  store i32 %0, i32* %2, align 4
  %3 = load i32, i32* %2, align 4
  %4 = srem i32 %3, 2
  %5 = icmp eq i32 %4, 1
  br i1 %5, label %6, label %10

6:                                                ; preds = %1
  %7 = load i32, i32* %2, align 4
  %8 = mul nsw i32 %7, 3
  %9 = add nsw i32 %8, 1
  store i32 %9, i32* %2, align 4
  br label %13

10:                                               ; preds = %1
  %11 = load i32, i32* %2, align 4
  %12 = sdiv i32 %11, 2
  store i32 %12, i32* %2, align 4
  br label %13

13:                                               ; preds = %10, %6
  %14 = load i32, i32* %2, align 4
  ret i32 %14
}

; Function Attrs: noinline nounwind uwtable
define dso_local void @main() #0 {
  %1 = alloca i32, align 4
  %2 = alloca i32, align 4
  %3 = call i32 (i8*, ...) @__isoc99_scanf(i8* getelementptr inbounds ([3 x i8], [3 x i8]* @.str, i64 0, i64 0), i32* %1)
  %4 = load i32, i32* %1, align 4
  %5 = icmp eq i32 %4, 1
  br i1 %5, label %6, label %8

6:                                                ; preds = %0
  %7 = call i32 (i8*, ...) @printf(i8* getelementptr inbounds ([4 x i8], [4 x i8]* @.str.1, i64 0, i64 0))
  br label %34

8:                                                ; preds = %0
  br label %9

9:                                                ; preds = %28, %8
  %10 = load i32, i32* %1, align 4
  %11 = call i32 @jiaogu(i32 %10)
  %12 = icmp ne i32 %11, 1
  br i1 %12, label %13, label %31

13:                                               ; preds = %9
  %14 = load i32, i32* %1, align 4
  store i32 %14, i32* %2, align 4
  %15 = load i32, i32* %1, align 4
  %16 = srem i32 %15, 2
  %17 = icmp eq i32 %16, 1
  br i1 %17, label %18, label %23

18:                                               ; preds = %13
  %19 = load i32, i32* %2, align 4
  %20 = load i32, i32* %1, align 4
  %21 = call i32 @jiaogu(i32 %20)
  %22 = call i32 (i8*, ...) @printf(i8* getelementptr inbounds ([11 x i8], [11 x i8]* @.str.2, i64 0, i64 0), i32 %19, i32 %21)
  br label %28

23:                                               ; preds = %13
  %24 = load i32, i32* %2, align 4
  %25 = load i32, i32* %1, align 4
  %26 = call i32 @jiaogu(i32 %25)
  %27 = call i32 (i8*, ...) @printf(i8* getelementptr inbounds ([9 x i8], [9 x i8]* @.str.3, i64 0, i64 0), i32 %24, i32 %26)
  br label %28

28:                                               ; preds = %23, %18
  %29 = load i32, i32* %1, align 4
  %30 = call i32 @jiaogu(i32 %29)
  store i32 %30, i32* %1, align 4
  br label %9

31:                                               ; preds = %9
  %32 = call i32 (i8*, ...) @printf(i8* getelementptr inbounds ([7 x i8], [7 x i8]* @.str.4, i64 0, i64 0))
  %33 = call i32 (i8*, ...) @printf(i8* getelementptr inbounds ([4 x i8], [4 x i8]* @.str.1, i64 0, i64 0))
  br label %34

34:                                               ; preds = %31, %6
  ret void
}

declare dso_local i32 @__isoc99_scanf(i8*, ...) #1

declare dso_local i32 @printf(i8*, ...) #1


!llvm.module.flags = !{!0}
!llvm.ident = !{!1}

!0 = !{i32 1, !"wchar_size", i32 4}
!1 = !{!"clang version 10.0.0-4ubuntu1 "}
